target datalayout = "e-m:e-p270:32:32-p271:32:32-p272:64:64-i64:64-i128:128-f80:128-n8:16:32:64-S128"
target triple = "x86_64-pc-linux-gnu"

%struct.plugin_feature_t = type { ptr, ptr, i64 }
%struct.run_command_args_t = type { ptr, ptr, ptr, i8, i32, i32, i8, ptr, ptr, ptr, ptr, i64, ptr, i8 }
%struct._foreach_modes_t = type { ptr, ptr }

@.str.3 = private unnamed_addr constant [2 x i8] c",\00", align 1
@exec_time = internal global i32 10, align 4
@.str.43 = private unnamed_addr constant [5 x i8] c"%s%s\00", align 1
@.str.44 = private unnamed_addr constant [1 x i8] zeroinitializer, align 1
@.str.45 = private unnamed_addr constant [10 x i8] c"get_state\00", align 1
@.str.46 = private unnamed_addr constant [2 x i8] c"\0A\00", align 1

; Function Attrs: nounwind uwtable
define internal ptr @_feature_get_state(ptr noundef %0) #0 {
  %2 = alloca ptr, align 8
  %3 = alloca ptr, align 8
  %4 = alloca ptr, align 8
  %5 = alloca ptr, align 8
  %6 = alloca i32, align 4
  %7 = alloca ptr, align 8
  %8 = alloca %struct.run_command_args_t, align 8
  store ptr %0, ptr %2, align 8
  call void @llvm.lifetime.start.p0(i64 8, ptr %3) #8
  call void @llvm.lifetime.start.p0(i64 8, ptr %4) #8
  call void @llvm.lifetime.start.p0(i64 8, ptr %5) #8
  store ptr null, ptr %5, align 8
  call void @llvm.lifetime.start.p0(i64 4, ptr %6) #8
  store i32 0, ptr %6, align 4
  call void @llvm.lifetime.start.p0(i64 8, ptr %7) #8
  %9 = call ptr @list_create(ptr noundef @xfree_ptr)
  store ptr %9, ptr %7, align 8
  call void @llvm.lifetime.start.p0(i64 96, ptr %8) #8
  %10 = getelementptr inbounds nuw %struct.run_command_args_t, ptr %8, i32 0, i32 0
  store ptr null, ptr %10, align 8
  %11 = getelementptr inbounds nuw %struct.run_command_args_t, ptr %8, i32 0, i32 1
  store ptr null, ptr %11, align 8
  %12 = getelementptr inbounds nuw %struct.run_command_args_t, ptr %8, i32 0, i32 2
  store ptr null, ptr %12, align 8
  %13 = getelementptr inbounds nuw %struct.run_command_args_t, ptr %8, i32 0, i32 3
  store i8 0, ptr %13, align 8
  %14 = getelementptr i8, ptr %8, i64 25
  call void @llvm.memset.p0.i64(ptr align 1 %14, i8 0, i64 3, i1 false)
  %15 = getelementptr inbounds nuw %struct.run_command_args_t, ptr %8, i32 0, i32 4
  store i32 0, ptr %15, align 4
  %16 = getelementptr inbounds nuw %struct.run_command_args_t, ptr %8, i32 0, i32 5
  %17 = load i32, ptr @exec_time, align 4
  %18 = mul i32 %17, 1000
  store i32 %18, ptr %16, align 8
  %19 = getelementptr inbounds nuw %struct.run_command_args_t, ptr %8, i32 0, i32 6
  store i8 0, ptr %19, align 4
  %20 = getelementptr i8, ptr %8, i64 37
  call void @llvm.memset.p0.i64(ptr align 1 %20, i8 0, i64 3, i1 false)
  %21 = getelementptr inbounds nuw %struct.run_command_args_t, ptr %8, i32 0, i32 7
  store ptr null, ptr %21, align 8
  %22 = getelementptr inbounds nuw %struct.run_command_args_t, ptr %8, i32 0, i32 8
  %23 = load ptr, ptr %2, align 8
  %24 = getelementptr inbounds nuw %struct.plugin_feature_t, ptr %23, i32 0, i32 1
  %25 = load ptr, ptr %24, align 8
  store ptr %25, ptr %22, align 8
  %26 = getelementptr inbounds nuw %struct.run_command_args_t, ptr %8, i32 0, i32 9
  store ptr @.str.45, ptr %26, align 8
  %27 = getelementptr inbounds nuw %struct.run_command_args_t, ptr %8, i32 0, i32 10
  store ptr %6, ptr %27, align 8
  %28 = getelementptr inbounds nuw %struct.run_command_args_t, ptr %8, i32 0, i32 11
  store i64 0, ptr %28, align 8
  %29 = getelementptr inbounds nuw %struct.run_command_args_t, ptr %8, i32 0, i32 12
  store ptr null, ptr %29, align 8
  %30 = getelementptr inbounds nuw %struct.run_command_args_t, ptr %8, i32 0, i32 13
  store i8 0, ptr %30, align 8
  %31 = getelementptr i8, ptr %8, i64 89
  call void @llvm.memset.p0.i64(ptr align 1 %31, i8 0, i64 7, i1 false)
  %32 = call ptr @run_command(ptr noundef %8)
  store ptr %32, ptr %5, align 8
  %33 = load i32, ptr %6, align 4
  %34 = icmp ne i32 %33, 0
  br i1 %34, label %35, label %36

35:                                               ; preds = %1
  br label %49

36:                                               ; preds = %1
  %37 = load ptr, ptr %5, align 8
  %38 = call ptr @strtok_r(ptr noundef %37, ptr noundef @.str.46, ptr noundef %4) #8
  store ptr %38, ptr %3, align 8
  br label %39

39:                                               ; preds = %46, %36
  %40 = load ptr, ptr %3, align 8
  %41 = icmp ne ptr %40, null
  br i1 %41, label %42, label %48

42:                                               ; preds = %39
  %43 = load ptr, ptr %7, align 8
  %44 = load ptr, ptr %3, align 8
  %45 = call ptr @xstrdup(ptr noundef %44)
  call void @list_append(ptr noundef %43, ptr noundef %45)
  br label %46

46:                                               ; preds = %42
  %47 = call ptr @strtok_r(ptr noundef null, ptr noundef @.str.46, ptr noundef %4) #8
  store ptr %47, ptr %3, align 8
  br label %39, !llvm.loop !26

48:                                               ; preds = %39
  br label %49

49:                                               ; preds = %48, %35
  call void @slurm_xfree(ptr noundef %5)
  %50 = load ptr, ptr %7, align 8
  call void @llvm.lifetime.end.p0(i64 96, ptr %8) #8
  call void @llvm.lifetime.end.p0(i64 8, ptr %7) #8
  call void @llvm.lifetime.end.p0(i64 4, ptr %6) #8
  call void @llvm.lifetime.end.p0(i64 8, ptr %5) #8
  call void @llvm.lifetime.end.p0(i64 8, ptr %4) #8
  call void @llvm.lifetime.end.p0(i64 8, ptr %3) #8
  ret ptr %50
}

; Function Attrs: nounwind uwtable
define internal i32 @_foreach_helper_get_modes(ptr noundef %0, ptr noundef %1) #0 {
  %3 = alloca i32, align 4
  %4 = alloca ptr, align 8
  %5 = alloca ptr, align 8
  %6 = alloca ptr, align 8
  %7 = alloca ptr, align 8
  %8 = alloca ptr, align 8
  %9 = alloca ptr, align 8
  %10 = alloca i32, align 4
  store ptr %0, ptr %4, align 8
  store ptr %1, ptr %5, align 8
  call void @llvm.lifetime.start.p0(i64 8, ptr %6) #8
  %11 = load ptr, ptr %5, align 8
  %12 = getelementptr inbounds nuw %struct._foreach_modes_t, ptr %11, i32 0, i32 0
  %13 = load ptr, ptr %12, align 8
  store ptr %13, ptr %6, align 8
  call void @llvm.lifetime.start.p0(i64 8, ptr %7) #8
  %14 = load ptr, ptr %5, align 8
  %15 = getelementptr inbounds nuw %struct._foreach_modes_t, ptr %14, i32 0, i32 1
  %16 = load ptr, ptr %15, align 8
  store ptr %16, ptr %7, align 8
  call void @llvm.lifetime.start.p0(i64 8, ptr %8) #8
  %17 = load ptr, ptr %4, align 8
  store ptr %17, ptr %8, align 8
  call void @llvm.lifetime.start.p0(i64 8, ptr %9) #8
  %18 = load ptr, ptr %8, align 8
  %19 = call ptr @_feature_get_state(ptr noundef %18)
  store ptr %19, ptr %9, align 8
  %20 = load ptr, ptr %6, align 8
  %21 = load ptr, ptr %6, align 8
  %22 = load ptr, ptr %21, align 8
  %23 = icmp ne ptr %22, null
  %24 = select i1 %23, ptr @.str.3, ptr @.str.44
  %25 = load ptr, ptr %8, align 8
  %26 = getelementptr inbounds nuw %struct.plugin_feature_t, ptr %25, i32 0, i32 0
  %27 = load ptr, ptr %26, align 8
  call void (ptr, ptr, ...) @_xstrfmtcat(ptr noundef %20, ptr noundef @.str.43, ptr noundef %24, ptr noundef %27)
  %28 = load ptr, ptr %9, align 8
  %29 = icmp ne ptr %28, null
  br i1 %29, label %30, label %34

30:                                               ; preds = %2
  %31 = load ptr, ptr %9, align 8
  %32 = call i32 @list_is_empty(ptr noundef %31)
  %33 = icmp ne i32 %32, 0
  br i1 %33, label %34, label %43

34:                                               ; preds = %30, %2
  br label %35

35:                                               ; preds = %34
  %36 = load ptr, ptr %9, align 8
  %37 = icmp ne ptr %36, null
  br i1 %37, label %38, label %40

38:                                               ; preds = %35
  %39 = load ptr, ptr %9, align 8
  call void @list_destroy(ptr noundef %39)
  br label %40

40:                                               ; preds = %38, %35
  store ptr null, ptr %9, align 8
  br label %41

41:                                               ; preds = %40
  br label %42

42:                                               ; preds = %41
  store i32 0, ptr %3, align 4
  store i32 1, ptr %10, align 4
  br label %55

43:                                               ; preds = %30
  %44 = load ptr, ptr %9, align 8
  %45 = load ptr, ptr %7, align 8
  %46 = call i32 @list_for_each(ptr noundef %44, ptr noundef @_foreach_check_duplicates, ptr noundef %45)
  br label %47

47:                                               ; preds = %43
  %48 = load ptr, ptr %9, align 8
  %49 = icmp ne ptr %48, null
  br i1 %49, label %50, label %52

50:                                               ; preds = %47
  %51 = load ptr, ptr %9, align 8
  call void @list_destroy(ptr noundef %51)
  br label %52

52:                                               ; preds = %50, %47
  store ptr null, ptr %9, align 8
  br label %53

53:                                               ; preds = %52
  br label %54

54:                                               ; preds = %53
  store i32 0, ptr %3, align 4
  store i32 1, ptr %10, align 4
  br label %55

55:                                               ; preds = %54, %42
  call void @llvm.lifetime.end.p0(i64 8, ptr %9) #8
  call void @llvm.lifetime.end.p0(i64 8, ptr %8) #8
  call void @llvm.lifetime.end.p0(i64 8, ptr %7) #8
  call void @llvm.lifetime.end.p0(i64 8, ptr %6) #8
  %56 = load i32, ptr %3, align 4
  ret i32 %56
}