; Function Attrs: nounwind uwtable
define internal noundef i32 @_foreach_helper_get_modes(ptr noundef readonly captures(none) %0, ptr noundef readonly captures(none) %1) #0 {
  %3 = alloca ptr, align 8
  %4 = alloca ptr, align 8
  %5 = alloca i32, align 4
  %6 = alloca %struct.run_command_args_t, align 8
  %7 = load ptr, ptr %1, align 8
  %8 = getelementptr inbounds nuw i8, ptr %1, i64 8
  %9 = load ptr, ptr %8, align 8
  call void @llvm.lifetime.start.p0(i64 8, ptr nonnull %3) #10
  call void @llvm.lifetime.start.p0(i64 8, ptr nonnull %4) #10
  call void @llvm.lifetime.start.p0(i64 4, ptr nonnull %5) #10
  store i32 0, ptr %5, align 4
  %10 = tail call ptr @list_create(ptr noundef nonnull @xfree_ptr) #10
  call void @llvm.lifetime.start.p0(i64 96, ptr nonnull %6) #10
  %11 = getelementptr inbounds nuw i8, ptr %6, i64 32
  call void @llvm.memset.p0.i64(ptr noundef nonnull align 8 dereferenceable(32) %6, i8 0, i64 32, i1 false)
  %12 = load i32, ptr @exec_time, align 4
  %13 = mul i32 %12, 1000
  store i32 %13, ptr %11, align 8
  %14 = getelementptr inbounds nuw i8, ptr %6, i64 36
  %15 = getelementptr inbounds nuw i8, ptr %6, i64 48
  %16 = getelementptr inbounds nuw i8, ptr %0, i64 8
  call void @llvm.memset.p0.i64(ptr noundef nonnull align 4 dereferenceable(12) %14, i8 0, i64 12, i1 false)
  %17 = load ptr, ptr %16, align 8
  store ptr %17, ptr %15, align 8
  %18 = getelementptr inbounds nuw i8, ptr %6, i64 56
  store ptr @.str.45, ptr %18, align 8
  %19 = getelementptr inbounds nuw i8, ptr %6, i64 64
  store ptr %5, ptr %19, align 8
  %20 = getelementptr inbounds nuw i8, ptr %6, i64 72
  call void @llvm.memset.p0.i64(ptr noundef nonnull align 8 dereferenceable(24) %20, i8 0, i64 24, i1 false)
  %21 = call ptr @run_command(ptr noundef nonnull %6) #10
  store ptr %21, ptr %4, align 8
  %22 = load i32, ptr %5, align 4
  %.not.i = icmp eq i32 %22, 0
  br i1 %.not.i, label %23, label %_feature_get_state.exit

23:                                               ; preds = %2
  %24 = call ptr @strtok_r(ptr noundef %21, ptr noundef nonnull @.str.46, ptr noundef nonnull %3) #10
  %.not56.i = icmp eq ptr %24, null
  br i1 %.not56.i, label %_feature_get_state.exit, label %.lr.ph.i

.lr.ph.i:                                         ; preds = %23, %.lr.ph.i
  %.07.i = phi ptr [ %26, %.lr.ph.i ], [ %24, %23 ]
  %25 = call ptr @xstrdup(ptr noundef nonnull %.07.i) #10
  call void @list_append(ptr noundef %10, ptr noundef %25) #10
  %26 = call ptr @strtok_r(ptr noundef null, ptr noundef nonnull @.str.46, ptr noundef nonnull %3) #10
  %.not5.i = icmp eq ptr %26, null
  br i1 %.not5.i, label %_feature_get_state.exit, label %.lr.ph.i, !llvm.loop !15

_feature_get_state.exit:                          ; preds = %.lr.ph.i, %2, %23
  call void @slurm_xfree(ptr noundef nonnull %4) #10
  call void @llvm.lifetime.end.p0(i64 96, ptr nonnull %6) #10
  call void @llvm.lifetime.end.p0(i64 4, ptr nonnull %5) #10
  call void @llvm.lifetime.end.p0(i64 8, ptr nonnull %4) #10
  call void @llvm.lifetime.end.p0(i64 8, ptr nonnull %3) #10
  %27 = load ptr, ptr %7, align 8
  %.not = icmp eq ptr %27, null
  %28 = select i1 %.not, ptr @.str.44, ptr @.str.3
  %29 = load ptr, ptr %0, align 8
  call void (ptr, ptr, ...) @_xstrfmtcat(ptr noundef nonnull %7, ptr noundef nonnull @.str.43, ptr noundef nonnull %28, ptr noundef %29) #10
  %.not15 = icmp eq ptr %10, null
  br i1 %.not15, label %.critedge, label %30

30:                                               ; preds = %_feature_get_state.exit
  %31 = call i32 @list_is_empty(ptr noundef nonnull %10) #10
  %.not16 = icmp eq i32 %31, 0
  br i1 %.not16, label %32, label %.critedge.sink.split

32:                                               ; preds = %30
  %33 = call i32 @list_for_each(ptr noundef nonnull %10, ptr noundef nonnull @_foreach_check_duplicates, ptr noundef %9) #10
  br label %.critedge.sink.split

.critedge.sink.split:                             ; preds = %30, %32
  call void @list_destroy(ptr noundef nonnull %10) #10
  br label %.critedge

.critedge:                                        ; preds = %.critedge.sink.split, %_feature_get_state.exit
  ret i32 0
}